; Function Attrs: nounwind uwtable
define dso_local zeroext i1 @ic_enable_completion_preview(i1 noundef zeroext %0) local_unnamed_addr #0 {
  %2 = load ptr, ptr @rpenv, align 8, !tbaa !108
  %3 = icmp eq ptr %2, null
  br i1 %3, label %4, label %ic_get_env.exit.thread6

4:                                                ; preds = %1
  %5 = tail call fastcc ptr @ic_env_create(ptr noundef null, ptr noundef null, ptr noundef null)
  store ptr %5, ptr @rpenv, align 8, !tbaa !108
  %.not.i = icmp eq ptr %5, null
  br i1 %.not.i, label %ic_get_env.exit.thread, label %ic_get_env.exit

ic_get_env.exit:                                  ; preds = %4
  %6 = tail call i32 @atexit(ptr noundef nonnull @ic_atexit) #32
  %.pre.i = load ptr, ptr @rpenv, align 8, !tbaa !108
  %7 = icmp eq ptr %.pre.i, null
  br i1 %7, label %ic_get_env.exit.thread, label %ic_get_env.exit.thread6

ic_get_env.exit.thread6:                          ; preds = %1, %ic_get_env.exit
  %8 = phi ptr [ %.pre.i, %ic_get_env.exit ], [ %2, %1 ]
  %9 = getelementptr inbounds nuw i8, ptr %8, i64 108
  %10 = load i8, ptr %9, align 4, !tbaa !157, !range !117, !noundef !118
  %11 = trunc nuw i8 %10 to i1
  %12 = xor i1 %0, true
  %13 = zext i1 %12 to i8
  store i8 %13, ptr %9, align 4, !tbaa !157
  %14 = xor i1 %11, true
  br label %ic_get_env.exit.thread

ic_get_env.exit.thread:                           ; preds = %4, %ic_get_env.exit, %ic_get_env.exit.thread6
  %.0 = phi i1 [ %14, %ic_get_env.exit.thread6 ], [ false, %ic_get_env.exit ], [ false, %4 ]
  ret i1 %.0
}